; Function Attrs: nounwind uwtable
define dso_local range(i32 0, 2) i32 @has_dirs_only_path(ptr noundef readonly captures(none) %0, i32 noundef %1, i32 noundef %2) local_unnamed_addr #0 {
  %4 = alloca i32, align 4
  call void @llvm.lifetime.start.p0(i64 4, ptr nonnull %4) #11
  %5 = call fastcc i32 @lstat_cache_matchlen(ptr noundef nonnull @default_cache, ptr noundef readonly %0, i32 noundef %1, ptr noundef %4, i32 noundef 33, i32 noundef %2)
  %6 = load i32, ptr %4, align 4, !tbaa !4
  call void @llvm.lifetime.end.p0(i64 4, ptr nonnull %4) #11
  %7 = and i32 %6, 1
  ret i32 %7
}